target datalayout = "e-m:e-p270:32:32-p271:32:32-p272:64:64-i64:64-i128:128-f80:128-n8:16:32:64-S128"
target triple = "x86_64-unknown-linux-gnu"

; Function Attrs: nounwind uwtable
define dso_local i32 @anetPipe(ptr noundef %fds, i32 noundef %read_flags, i32 noundef %write_flags) #0 {
entry:
  %retval = alloca i32, align 4
  %fds.addr = alloca ptr, align 8
  %read_flags.addr = alloca i32, align 4
  %write_flags.addr = alloca i32, align 4
  %pipe_flags = alloca i32, align 4
  store ptr %fds, ptr %fds.addr, align 8
  store i32 %read_flags, ptr %read_flags.addr, align 4
  store i32 %write_flags, ptr %write_flags.addr, align 4
  store i32 0, ptr %pipe_flags, align 4
  %0 = load i32, ptr %read_flags.addr, align 4
  %1 = load i32, ptr %write_flags.addr, align 4
  %and = and i32 %0, %1
  %or = or i32 524288, %and
  store i32 %or, ptr %pipe_flags, align 4
  %2 = load ptr, ptr %fds.addr, align 8
  %3 = load i32, ptr %pipe_flags, align 4
  %call = call i32 @pipe2(ptr noundef %2, i32 noundef %3) #7
  %tobool = icmp ne i32 %call, 0
  br i1 %tobool, label %if.then, label %if.else

if.then:                                          ; preds = %entry
  %call1 = call ptr @__errno_location() #8
  %4 = load i32, ptr %call1, align 4
  %cmp = icmp ne i32 %4, 38
  br i1 %cmp, label %land.lhs.true, label %if.end

land.lhs.true:                                    ; preds = %if.then
  %call2 = call ptr @__errno_location() #8
  %5 = load i32, ptr %call2, align 4
  %cmp3 = icmp ne i32 %5, 22
  br i1 %cmp3, label %if.then4, label %if.end

if.then4:                                         ; preds = %land.lhs.true
  store i32 -1, ptr %retval, align 4
  br label %return

if.end:                                           ; preds = %land.lhs.true, %if.then
  store i32 0, ptr %pipe_flags, align 4
  br label %if.end13

if.else:                                          ; preds = %entry
  %6 = load i32, ptr %read_flags.addr, align 4
  %or5 = or i32 524288, %6
  %7 = load i32, ptr %write_flags.addr, align 4
  %or6 = or i32 524288, %7
  %cmp7 = icmp eq i32 %or5, %or6
  br i1 %cmp7, label %if.then8, label %if.end9

if.then8:                                         ; preds = %if.else
  store i32 0, ptr %retval, align 4
  br label %return

if.end9:                                          ; preds = %if.else
  %8 = load i32, ptr %pipe_flags, align 4
  %not = xor i32 %8, -1
  %9 = load i32, ptr %read_flags.addr, align 4
  %and10 = and i32 %9, %not
  store i32 %and10, ptr %read_flags.addr, align 4
  %10 = load i32, ptr %pipe_flags, align 4
  %not11 = xor i32 %10, -1
  %11 = load i32, ptr %write_flags.addr, align 4
  %and12 = and i32 %11, %not11
  store i32 %and12, ptr %write_flags.addr, align 4
  br label %if.end13

if.end13:                                         ; preds = %if.end9, %if.end
  %12 = load i32, ptr %pipe_flags, align 4
  %cmp14 = icmp eq i32 %12, 0
  br i1 %cmp14, label %land.lhs.true15, label %if.end19

land.lhs.true15:                                  ; preds = %if.end13
  %13 = load ptr, ptr %fds.addr, align 8
  %call16 = call i32 @pipe(ptr noundef %13) #7
  %tobool17 = icmp ne i32 %call16, 0
  br i1 %tobool17, label %if.then18, label %if.end19

if.then18:                                        ; preds = %land.lhs.true15
  store i32 -1, ptr %retval, align 4
  br label %return

if.end19:                                         ; preds = %land.lhs.true15, %if.end13
  %14 = load i32, ptr %read_flags.addr, align 4
  %and20 = and i32 %14, 524288
  %tobool21 = icmp ne i32 %and20, 0
  br i1 %tobool21, label %if.then22, label %if.end27

if.then22:                                        ; preds = %if.end19
  %15 = load ptr, ptr %fds.addr, align 8
  %arrayidx = getelementptr inbounds i32, ptr %15, i64 0
  %16 = load i32, ptr %arrayidx, align 4
  %call23 = call i32 (i32, i32, ...) @fcntl64(i32 noundef %16, i32 noundef 2, i32 noundef 1)
  %tobool24 = icmp ne i32 %call23, 0
  br i1 %tobool24, label %if.then25, label %if.end26

if.then25:                                        ; preds = %if.then22
  br label %error

if.end26:                                         ; preds = %if.then22
  br label %if.end27

if.end27:                                         ; preds = %if.end26, %if.end19
  %17 = load i32, ptr %write_flags.addr, align 4
  %and28 = and i32 %17, 524288
  %tobool29 = icmp ne i32 %and28, 0
  br i1 %tobool29, label %if.then30, label %if.end36

if.then30:                                        ; preds = %if.end27
  %18 = load ptr, ptr %fds.addr, align 8
  %arrayidx31 = getelementptr inbounds i32, ptr %18, i64 1
  %19 = load i32, ptr %arrayidx31, align 4
  %call32 = call i32 (i32, i32, ...) @fcntl64(i32 noundef %19, i32 noundef 2, i32 noundef 1)
  %tobool33 = icmp ne i32 %call32, 0
  br i1 %tobool33, label %if.then34, label %if.end35

if.then34:                                        ; preds = %if.then30
  br label %error

if.end35:                                         ; preds = %if.then30
  br label %if.end36

if.end36:                                         ; preds = %if.end35, %if.end27
  %20 = load i32, ptr %read_flags.addr, align 4
  %and37 = and i32 %20, -524289
  store i32 %and37, ptr %read_flags.addr, align 4
  %21 = load i32, ptr %read_flags.addr, align 4
  %tobool38 = icmp ne i32 %21, 0
  br i1 %tobool38, label %if.then39, label %if.end45

if.then39:                                        ; preds = %if.end36
  %22 = load ptr, ptr %fds.addr, align 8
  %arrayidx40 = getelementptr inbounds i32, ptr %22, i64 0
  %23 = load i32, ptr %arrayidx40, align 4
  %24 = load i32, ptr %read_flags.addr, align 4
  %call41 = call i32 (i32, i32, ...) @fcntl64(i32 noundef %23, i32 noundef 4, i32 noundef %24)
  %tobool42 = icmp ne i32 %call41, 0
  br i1 %tobool42, label %if.then43, label %if.end44

if.then43:                                        ; preds = %if.then39
  br label %error

if.end44:                                         ; preds = %if.then39
  br label %if.end45

if.end45:                                         ; preds = %if.end44, %if.end36
  %25 = load i32, ptr %write_flags.addr, align 4
  %and46 = and i32 %25, -524289
  store i32 %and46, ptr %write_flags.addr, align 4
  %26 = load i32, ptr %write_flags.addr, align 4
  %tobool47 = icmp ne i32 %26, 0
  br i1 %tobool47, label %if.then48, label %if.end54

if.then48:                                        ; preds = %if.end45
  %27 = load ptr, ptr %fds.addr, align 8
  %arrayidx49 = getelementptr inbounds i32, ptr %27, i64 1
  %28 = load i32, ptr %arrayidx49, align 4
  %29 = load i32, ptr %write_flags.addr, align 4
  %call50 = call i32 (i32, i32, ...) @fcntl64(i32 noundef %28, i32 noundef 4, i32 noundef %29)
  %tobool51 = icmp ne i32 %call50, 0
  br i1 %tobool51, label %if.then52, label %if.end53

if.then52:                                        ; preds = %if.then48
  br label %error

if.end53:                                         ; preds = %if.then48
  br label %if.end54

if.end54:                                         ; preds = %if.end53, %if.end45
  store i32 0, ptr %retval, align 4
  br label %return

error:                                            ; preds = %if.then52, %if.then43, %if.then34, %if.then25
  %30 = load ptr, ptr %fds.addr, align 8
  %arrayidx55 = getelementptr inbounds i32, ptr %30, i64 0
  %31 = load i32, ptr %arrayidx55, align 4
  %call56 = call i32 @close(i32 noundef %31)
  %32 = load ptr, ptr %fds.addr, align 8
  %arrayidx57 = getelementptr inbounds i32, ptr %32, i64 1
  %33 = load i32, ptr %arrayidx57, align 4
  %call58 = call i32 @close(i32 noundef %33)
  store i32 -1, ptr %retval, align 4
  br label %return

return:                                           ; preds = %error, %if.end54, %if.then18, %if.then8, %if.then4
  %34 = load i32, ptr %retval, align 4
  ret i32 %34
}