; Function Attrs: nounwind uwtable
define dso_local noundef i32 @anetPipe(ptr noundef %fds, i32 noundef %read_flags, i32 noundef %write_flags) local_unnamed_addr #0 {
entry:
  %and = and i32 %write_flags, %read_flags
  %or = or i32 %and, 524288
  %call = tail call i32 @pipe2(ptr noundef %fds, i32 noundef %or) #10
  %tobool.not.not = icmp eq i32 %call, 0
  br i1 %tobool.not.not, label %if.else, label %if.then

if.then:                                          ; preds = %entry
  %call1 = tail call ptr @__errno_location() #11
  %0 = load i32, ptr %call1, align 4
  switch i32 %0, label %return [
    i32 38, label %land.lhs.true15
    i32 22, label %land.lhs.true15
  ]

if.else:                                          ; preds = %entry
  %1 = xor i32 %write_flags, %read_flags
  %2 = and i32 %1, -524289
  %cmp7 = icmp eq i32 %2, 0
  br i1 %cmp7, label %return, label %if.end13.thread

if.end13.thread:                                  ; preds = %if.else
  %not = xor i32 %or, -1
  %and10 = and i32 %not, %read_flags
  %and12 = and i32 %not, %write_flags
  br label %if.end19

land.lhs.true15:                                  ; preds = %if.then, %if.then
  %call16 = tail call i32 @pipe(ptr noundef %fds) #10
  %tobool17.not = icmp eq i32 %call16, 0
  br i1 %tobool17.not, label %if.end19, label %return

if.end19:                                         ; preds = %if.end13.thread, %land.lhs.true15
  %write_flags.addr.026 = phi i32 [ %and12, %if.end13.thread ], [ %write_flags, %land.lhs.true15 ]
  %read_flags.addr.025 = phi i32 [ %and10, %if.end13.thread ], [ %read_flags, %land.lhs.true15 ]
  %and20 = and i32 %read_flags.addr.025, 524288
  %tobool21.not = icmp eq i32 %and20, 0
  br i1 %tobool21.not, label %if.end27, label %if.then22

if.then22:                                        ; preds = %if.end19
  %3 = load i32, ptr %fds, align 4
  %call23 = tail call i32 (i32, i32, ...) @fcntl64(i32 noundef %3, i32 noundef 2, i32 noundef 1) #10
  %tobool24.not = icmp eq i32 %call23, 0
  br i1 %tobool24.not, label %if.end27, label %error

if.end27:                                         ; preds = %if.then22, %if.end19
  %and28 = and i32 %write_flags.addr.026, 524288
  %tobool29.not = icmp eq i32 %and28, 0
  br i1 %tobool29.not, label %if.end36, label %if.then30

if.then30:                                        ; preds = %if.end27
  %arrayidx31 = getelementptr inbounds i8, ptr %fds, i64 4
  %4 = load i32, ptr %arrayidx31, align 4
  %call32 = tail call i32 (i32, i32, ...) @fcntl64(i32 noundef %4, i32 noundef 2, i32 noundef 1) #10
  %tobool33.not = icmp eq i32 %call32, 0
  br i1 %tobool33.not, label %if.end36, label %error

if.end36:                                         ; preds = %if.then30, %if.end27
  %and37 = and i32 %read_flags.addr.025, -524289
  %tobool38.not = icmp eq i32 %and37, 0
  br i1 %tobool38.not, label %if.end45, label %if.then39

if.then39:                                        ; preds = %if.end36
  %5 = load i32, ptr %fds, align 4
  %call41 = tail call i32 (i32, i32, ...) @fcntl64(i32 noundef %5, i32 noundef 4, i32 noundef %and37) #10
  %tobool42.not = icmp eq i32 %call41, 0
  br i1 %tobool42.not, label %if.end45, label %error

if.end45:                                         ; preds = %if.then39, %if.end36
  %and46 = and i32 %write_flags.addr.026, -524289
  %tobool47.not = icmp eq i32 %and46, 0
  br i1 %tobool47.not, label %return, label %if.then48

if.then48:                                        ; preds = %if.end45
  %arrayidx49 = getelementptr inbounds i8, ptr %fds, i64 4
  %6 = load i32, ptr %arrayidx49, align 4
  %call50 = tail call i32 (i32, i32, ...) @fcntl64(i32 noundef %6, i32 noundef 4, i32 noundef %and46) #10
  %tobool51.not = icmp eq i32 %call50, 0
  br i1 %tobool51.not, label %return, label %error

error:                                            ; preds = %if.then48, %if.then39, %if.then30, %if.then22
  %7 = load i32, ptr %fds, align 4
  %call56 = tail call i32 @close(i32 noundef %7) #10
  %arrayidx57 = getelementptr inbounds i8, ptr %fds, i64 4
  %8 = load i32, ptr %arrayidx57, align 4
  %call58 = tail call i32 @close(i32 noundef %8) #10
  br label %return

return:                                           ; preds = %if.end45, %if.then48, %land.lhs.true15, %if.else, %if.then, %error
  %retval.0 = phi i32 [ -1, %error ], [ -1, %if.then ], [ 0, %if.else ], [ -1, %land.lhs.true15 ], [ 0, %if.then48 ], [ 0, %if.end45 ]
  ret i32 %retval.0
}